target datalayout = "e-m:e-p270:32:32-p271:32:32-p272:64:64-i64:64-i128:128-f80:128-n8:16:32:64-S128"
target triple = "x86_64-unknown-linux-gnu"

%struct.CryptoDevBackend = type { %struct.Object, i8, i8, %struct.CryptoDevBackendConf, ptr, ptr, %struct.ThrottleState, %struct.ThrottleTimers, %struct.ThrottleConfig, %union.anon }
%struct.Object = type { ptr, ptr, ptr, i32, ptr }
%struct.CryptoDevBackendConf = type { %struct.CryptoDevBackendPeers, i32, i32, i32, i32, i32, i32, i32, i32, i32, i32, i64 }
%struct.CryptoDevBackendPeers = type { [64 x ptr], i32 }
%struct.ThrottleState = type { %struct.ThrottleConfig, i64 }
%struct.ThrottleTimers = type { [2 x ptr], i32, [2 x ptr], ptr }
%struct.ThrottleConfig = type { [6 x %struct.LeakyBucket], i64 }
%struct.LeakyBucket = type { i64, i64, double, double, i64 }
%union.anon = type { %struct.QTailQLink }
%struct.QTailQLink = type { ptr, ptr }
%struct.CryptoDevBackendClient = type { i32, ptr, i32, i32, %union.anon.0 }
%union.anon.0 = type { %struct.QTailQLink }
%struct.QCryptoAkCipherOptions = type { i32, %union.anon.1 }
%union.anon.1 = type { %struct.QCryptoAkCipherOptionsRSA }
%struct.QCryptoAkCipherOptionsRSA = type { i32, i32 }

@.str.3 = private unnamed_addr constant [37 x i8] c"../qemu/backends/cryptodev-builtin.c\00", align 1
@__func__.cryptodev_builtin_init = private unnamed_addr constant [23 x i8] c"cryptodev_builtin_init\00", align 1
@.str.4 = private unnamed_addr constant [51 x i8] c"Only support one queue in cryptdov-builtin backend\00", align 1
@.str.5 = private unnamed_addr constant [19 x i8] c"cryptodev-builtin0\00", align 1

; Function Attrs: nounwind sspstrong uwtable
define internal void @cryptodev_builtin_init_akcipher(ptr noundef %backend) #0 {
entry:
  %backend.addr = alloca ptr, align 8
  %opts = alloca %struct.QCryptoAkCipherOptions, align 4
  store ptr %backend, ptr %backend.addr, align 8
  %alg = getelementptr inbounds %struct.QCryptoAkCipherOptions, ptr %opts, i32 0, i32 0
  store i32 0, ptr %alg, align 4
  %u = getelementptr inbounds %struct.QCryptoAkCipherOptions, ptr %opts, i32 0, i32 1
  %padding_alg = getelementptr inbounds %struct.QCryptoAkCipherOptionsRSA, ptr %u, i32 0, i32 1
  store i32 0, ptr %padding_alg, align 4
  %call = call zeroext i1 @qcrypto_akcipher_supports(ptr noundef %opts)
  br i1 %call, label %if.then, label %if.end

if.then:                                          ; preds = %entry
  %0 = load ptr, ptr %backend.addr, align 8
  %conf = getelementptr inbounds %struct.CryptoDevBackend, ptr %0, i32 0, i32 3
  %crypto_services = getelementptr inbounds %struct.CryptoDevBackendConf, ptr %conf, i32 0, i32 1
  %1 = load i32, ptr %crypto_services, align 8
  %or = or i32 %1, 16
  store i32 %or, ptr %crypto_services, align 8
  %2 = load ptr, ptr %backend.addr, align 8
  %conf1 = getelementptr inbounds %struct.CryptoDevBackend, ptr %2, i32 0, i32 3
  %akcipher_algo = getelementptr inbounds %struct.CryptoDevBackendConf, ptr %conf1, i32 0, i32 8
  store i32 2, ptr %akcipher_algo, align 4
  br label %if.end

if.end:                                           ; preds = %if.then, %entry
  ret void
}

; Function Attrs: nounwind sspstrong uwtable
define internal void @cryptodev_builtin_init(ptr noundef %backend, ptr noundef %errp) #0 {
entry:
  %backend.addr = alloca ptr, align 8
  %errp.addr = alloca ptr, align 8
  %queues = alloca i32, align 4
  %cc = alloca ptr, align 8
  store ptr %backend, ptr %backend.addr, align 8
  store ptr %errp, ptr %errp.addr, align 8
  %0 = load ptr, ptr %backend.addr, align 8
  %conf = getelementptr inbounds %struct.CryptoDevBackend, ptr %0, i32 0, i32 3
  %peers = getelementptr inbounds %struct.CryptoDevBackendConf, ptr %conf, i32 0, i32 0
  %queues1 = getelementptr inbounds %struct.CryptoDevBackendPeers, ptr %peers, i32 0, i32 1
  %1 = load i32, ptr %queues1, align 8
  store i32 %1, ptr %queues, align 4
  %2 = load i32, ptr %queues, align 4
  %cmp = icmp ne i32 %2, 1
  br i1 %cmp, label %if.then, label %if.end

if.then:                                          ; preds = %entry
  %3 = load ptr, ptr %errp.addr, align 8
  call void (ptr, ptr, i32, ptr, ptr, ...) @error_setg_internal(ptr noundef %3, ptr noundef @.str.3, i32 noundef 84, ptr noundef @__func__.cryptodev_builtin_init, ptr noundef @.str.4)
  br label %return

if.end:                                           ; preds = %entry
  %call = call ptr @cryptodev_backend_new_client()
  store ptr %call, ptr %cc, align 8
  %call2 = call noalias ptr (ptr, ...) @g_strdup_printf(ptr noundef @.str.5)
  %4 = load ptr, ptr %cc, align 8
  %info_str = getelementptr inbounds %struct.CryptoDevBackendClient, ptr %4, i32 0, i32 1
  store ptr %call2, ptr %info_str, align 8
  %5 = load ptr, ptr %cc, align 8
  %queue_index = getelementptr inbounds %struct.CryptoDevBackendClient, ptr %5, i32 0, i32 2
  store i32 0, ptr %queue_index, align 8
  %6 = load ptr, ptr %cc, align 8
  %type = getelementptr inbounds %struct.CryptoDevBackendClient, ptr %6, i32 0, i32 0
  store i32 0, ptr %type, align 8
  %7 = load ptr, ptr %cc, align 8
  %8 = load ptr, ptr %backend.addr, align 8
  %conf3 = getelementptr inbounds %struct.CryptoDevBackend, ptr %8, i32 0, i32 3
  %peers4 = getelementptr inbounds %struct.CryptoDevBackendConf, ptr %conf3, i32 0, i32 0
  %ccs = getelementptr inbounds %struct.CryptoDevBackendPeers, ptr %peers4, i32 0, i32 0
  %arrayidx = getelementptr [64 x ptr], ptr %ccs, i64 0, i64 0
  store ptr %7, ptr %arrayidx, align 8
  %9 = load ptr, ptr %backend.addr, align 8
  %conf5 = getelementptr inbounds %struct.CryptoDevBackend, ptr %9, i32 0, i32 3
  %crypto_services = getelementptr inbounds %struct.CryptoDevBackendConf, ptr %conf5, i32 0, i32 1
  store i32 7, ptr %crypto_services, align 8
  %10 = load ptr, ptr %backend.addr, align 8
  %conf6 = getelementptr inbounds %struct.CryptoDevBackend, ptr %10, i32 0, i32 3
  %cipher_algo_l = getelementptr inbounds %struct.CryptoDevBackendConf, ptr %conf6, i32 0, i32 2
  store i32 8, ptr %cipher_algo_l, align 4
  %11 = load ptr, ptr %backend.addr, align 8
  %conf7 = getelementptr inbounds %struct.CryptoDevBackend, ptr %11, i32 0, i32 3
  %hash_algo = getelementptr inbounds %struct.CryptoDevBackendConf, ptr %conf7, i32 0, i32 4
  store i32 4, ptr %hash_algo, align 4
  %12 = load ptr, ptr %backend.addr, align 8
  %conf8 = getelementptr inbounds %struct.CryptoDevBackend, ptr %12, i32 0, i32 3
  %max_size = getelementptr inbounds %struct.CryptoDevBackendConf, ptr %conf8, i32 0, i32 11
  store i64 9223372036854775743, ptr %max_size, align 8
  %13 = load ptr, ptr %backend.addr, align 8
  %conf9 = getelementptr inbounds %struct.CryptoDevBackend, ptr %13, i32 0, i32 3
  %max_cipher_key_len = getelementptr inbounds %struct.CryptoDevBackendConf, ptr %conf9, i32 0, i32 9
  store i32 64, ptr %max_cipher_key_len, align 8
  %14 = load ptr, ptr %backend.addr, align 8
  %conf10 = getelementptr inbounds %struct.CryptoDevBackend, ptr %14, i32 0, i32 3
  %max_auth_key_len = getelementptr inbounds %struct.CryptoDevBackendConf, ptr %conf10, i32 0, i32 10
  store i32 512, ptr %max_auth_key_len, align 4
  %15 = load ptr, ptr %backend.addr, align 8
  call void @cryptodev_builtin_init_akcipher(ptr noundef %15)
  %16 = load ptr, ptr %backend.addr, align 8
  call void @cryptodev_backend_set_ready(ptr noundef %16, i1 noundef zeroext true)
  br label %return

return:                                           ; preds = %if.end, %if.then
  ret void
}