; Function Attrs: nounwind sspstrong uwtable
define internal void @cryptodev_builtin_init(ptr noundef %backend, ptr noundef %errp) #0 {
entry:
  %opts.i = alloca %struct.QCryptoAkCipherOptions, align 4
  %queues1 = getelementptr inbounds nuw i8, ptr %backend, i64 560
  %0 = load i32, ptr %queues1, align 8
  %cmp.not = icmp eq i32 %0, 1
  br i1 %cmp.not, label %if.end, label %if.then

if.then:                                          ; preds = %entry
  tail call void (ptr, ptr, i32, ptr, ptr, ...) @error_setg_internal(ptr noundef %errp, ptr noundef nonnull @.str.3, i32 noundef 84, ptr noundef nonnull @__func__.cryptodev_builtin_init, ptr noundef nonnull @.str.4) #6
  br label %return

if.end:                                           ; preds = %entry
  %conf = getelementptr inbounds nuw i8, ptr %backend, i64 48
  %call = tail call ptr @cryptodev_backend_new_client() #6
  %call2 = tail call noalias ptr (ptr, ...) @g_strdup_printf(ptr noundef nonnull @.str.5) #6
  %info_str = getelementptr inbounds nuw i8, ptr %call, i64 8
  store ptr %call2, ptr %info_str, align 8
  %queue_index = getelementptr inbounds nuw i8, ptr %call, i64 16
  store i32 0, ptr %queue_index, align 8
  store i32 0, ptr %call, align 8
  store ptr %call, ptr %conf, align 8
  %crypto_services = getelementptr inbounds nuw i8, ptr %backend, i64 568
  store i32 7, ptr %crypto_services, align 8
  %cipher_algo_l = getelementptr inbounds nuw i8, ptr %backend, i64 572
  store i32 8, ptr %cipher_algo_l, align 4
  %hash_algo = getelementptr inbounds nuw i8, ptr %backend, i64 580
  store i32 4, ptr %hash_algo, align 4
  %max_size = getelementptr inbounds nuw i8, ptr %backend, i64 608
  store i64 9223372036854775743, ptr %max_size, align 8
  %max_cipher_key_len = getelementptr inbounds nuw i8, ptr %backend, i64 600
  store i32 64, ptr %max_cipher_key_len, align 8
  %max_auth_key_len = getelementptr inbounds nuw i8, ptr %backend, i64 604
  store i32 512, ptr %max_auth_key_len, align 4
  call void @llvm.lifetime.start.p0(i64 12, ptr nonnull %opts.i)
  store i32 0, ptr %opts.i, align 4
  %padding_alg.i = getelementptr inbounds nuw i8, ptr %opts.i, i64 8
  store i32 0, ptr %padding_alg.i, align 4
  %call.i = call zeroext i1 @qcrypto_akcipher_supports(ptr noundef nonnull %opts.i) #6
  br i1 %call.i, label %if.then.i, label %cryptodev_builtin_init_akcipher.exit

if.then.i:                                        ; preds = %if.end
  %1 = load i32, ptr %crypto_services, align 8
  %or.i = or i32 %1, 16
  store i32 %or.i, ptr %crypto_services, align 8
  %akcipher_algo.i = getelementptr inbounds nuw i8, ptr %backend, i64 596
  store i32 2, ptr %akcipher_algo.i, align 4
  br label %cryptodev_builtin_init_akcipher.exit

cryptodev_builtin_init_akcipher.exit:             ; preds = %if.end, %if.then.i
  call void @llvm.lifetime.end.p0(i64 12, ptr nonnull %opts.i)
  call void @cryptodev_backend_set_ready(ptr noundef nonnull %backend, i1 noundef zeroext true) #6
  br label %return

return:                                           ; preds = %cryptodev_builtin_init_akcipher.exit, %if.then
  ret void
}